(dp0
S'Alien_Dead'
p1
S'https://www.youtube.com/watch?v=p0CUsm5nXEo'
p2
sS'28_Weeks_Later'
p3
S'https://www.youtube.com/watch?v=vWQSMrtPiYs'
p4
sS'American_Zombie'
p5
S'https://www.youtube.com/watch?v=tdhXeqrjtmw'
p6
sS'All_Souls_Day_(film)'
p7
S'https://www.youtube.com/watch?v=n1MKWKYnnAc'
p8
sS'Abraham_Lincoln_vs._Zombies'
p9
S'https://www.youtube.com/watch?v=jSsRkX71QBk'
p10
sS'Automaton_Transfusion'
p11
S'https://www.youtube.com/watch?v=AuUfo7G-lOE'
p12
sS'Army_of_Darkness'
p13
S'https://www.youtube.com/watch?v=UHZQEtG8xYo'
p14
sS'The_Amazing_Adventures_of_the_Living_Corpse'
p15
S'https://www.youtube.com/watch?v=Rgez04II7FQ'
p16
sS'28_Days_Later'
p17
S'https://www.youtube.com/watch?v=c7ynwAgQlDQ'
p18
sS'The_Astro-Zombies'
p19
S'https://www.youtube.com/watch?v=rPxTR3y0nIc'
p20
s.